(dp0
S'PERITONEAL DIALYSIS'
p1
S'peritoneal_dialysis'
p2
sS'ANXIETY'
p3
S'anxiety'
p4
sS'PAIN'
p5
S'pain'
p6
sS"CROHN'S DISEASE"
p7
S'chrohns_disease'
p8
sS'ATRIAL FIBRILLATION'
p9
S'atrial_fibrillation'
p10
sS'BACK PAIN'
p11
S'back_pain'
p12
sS'BIPOLAR DISORDER'
p13
S'bipolar_disorder'
p14
sS'NON-SMALL CELL LUNG CANCER'
p15
S'non_small_cell_lung_cancer'
p16
sS'DIABETES MELLITUS'
p17
S'diabetes_mellitus'
p18
sS'PSORIATIC ARTHROPATHY'
p19
S'psoriatic_arthropathy'
p20
sS'DEPRESSION'
p21
S'depression'
p22
sS'OSTEOPOROSIS'
p23
S'osteoporosis'
p24
sS'PSORIASIS'
p25
S'psoriasis'
p26
sS'BLOOD CHOLESTEROL INCREASED'
p27
S'blood_cholesterol_increased'
p28
sS'SMOKING CESSATION THERAPY'
p29
S'smoking_cessation_therapy'
p30
sS'CONTRACEPTION'
p31
S'contraception'
p32
sS'MIGRAINE'
p33
S'migraine'
p34
sS'MULTIPLE MYELOMA'
p35
S'multiple_myeloma'
p36
sS'SCHIZOPHRENIA'
p37
S'schizophrenia'
p38
sS'HORMONE REPLACEMENT THERAPY'
p39
S'hormone_replacement_therapy'
p40
sS'PREMEDICATION'
p41
S'premedication'
p42
sS'GASTROOESOPHAGEAL REFLUX DISEASE'
p43
S'gastrooesophageal_reflux_disease'
p44
sS'EPILEPSY'
p45
S'epilepsy'
p46
sS'TYPE 2 DIABETES MELLITUS'
p47
S'type_2_diabetes_mellitus'
p48
sS'PROPHYLAXIS'
p49
S'prophylaxis'
p50
sS'INSOMNIA'
p51
S'insomnia'
p52
sS'ATTENTION DEFICIT/HYPERACTIVITY DISORDER'
p53
S'adhd'
p54
sS'CHRONIC OBSTRUCTIVE PULMONARY DISEASE'
p55
S'chronic_obstructive_pulminary_disease'
p56
sS'HYPERTENSION'
p57
S'hypertension'
p58
sS'DIABETES MELLITUS NON-INSULIN-DEPENDENT'
p59
S'diabetes_mellitus_non_insulin_dependent'
p60
sS'HEPATITIS C'
p61
S'hepatitis_c'
p62
sS'MULTIPLE SCLEROSIS'
p63
S'multiple_sclerosis'
p64
sS'ASTHMA'
p65
S'asthma'
p66
sS'ARTHRITIS'
p67
S'arthritis'
p68
sS'HIV INFECTION'
p69
S'hiv_infection'
p70
sS'HYPOTHYROIDISM'
p71
S'hypothyroidism'
p72
sS'PULMONARY ARTERIAL HYPERTENSION'
p73
S'pulmonary_arterial_hypertension'
p74
sS'BREAST CANCER'
p75
S'breast_cancer'
p76
s.